target datalayout = "e-m:e-p270:32:32-p271:32:32-p272:64:64-i64:64-i128:128-f80:128-n8:16:32:64-S128"
target triple = "x86_64-pc-linux-gnu"

%struct.llama_kv_cache = type { i8, i8, i8, i8, i8, i32, i32, i32, i32, i32, i32, %"class.std::vector.29", %"class.std::vector.34", %"class.std::vector.34", %"class.std::vector.39", %"class.std::vector.44" }
%"class.std::vector.29" = type { %"struct.std::_Vector_base.30" }
%"struct.std::_Vector_base.30" = type { %"struct.std::_Vector_base<llama_kv_cell, std::allocator<llama_kv_cell>>::_Vector_impl" }
%"struct.std::_Vector_base<llama_kv_cell, std::allocator<llama_kv_cell>>::_Vector_impl" = type { %"struct.std::_Vector_base<llama_kv_cell, std::allocator<llama_kv_cell>>::_Vector_impl_data" }
%"struct.std::_Vector_base<llama_kv_cell, std::allocator<llama_kv_cell>>::_Vector_impl_data" = type { ptr, ptr, ptr }
%"class.std::vector.34" = type { %"struct.std::_Vector_base.35" }
%"struct.std::_Vector_base.35" = type { %"struct.std::_Vector_base<ggml_tensor *, std::allocator<ggml_tensor *>>::_Vector_impl" }
%"struct.std::_Vector_base<ggml_tensor *, std::allocator<ggml_tensor *>>::_Vector_impl" = type { %"struct.std::_Vector_base<ggml_tensor *, std::allocator<ggml_tensor *>>::_Vector_impl_data" }
%"struct.std::_Vector_base<ggml_tensor *, std::allocator<ggml_tensor *>>::_Vector_impl_data" = type { ptr, ptr, ptr }
%"class.std::vector.39" = type { %"struct.std::_Vector_base.40" }
%"struct.std::_Vector_base.40" = type { %"struct.std::_Vector_base<std::unique_ptr<ggml_context, ggml_context_deleter>, std::allocator<std::unique_ptr<ggml_context, ggml_context_deleter>>>::_Vector_impl" }
%"struct.std::_Vector_base<std::unique_ptr<ggml_context, ggml_context_deleter>, std::allocator<std::unique_ptr<ggml_context, ggml_context_deleter>>>::_Vector_impl" = type { %"struct.std::_Vector_base<std::unique_ptr<ggml_context, ggml_context_deleter>, std::allocator<std::unique_ptr<ggml_context, ggml_context_deleter>>>::_Vector_impl_data" }
%"struct.std::_Vector_base<std::unique_ptr<ggml_context, ggml_context_deleter>, std::allocator<std::unique_ptr<ggml_context, ggml_context_deleter>>>::_Vector_impl_data" = type { ptr, ptr, ptr }
%"class.std::vector.44" = type { %"struct.std::_Vector_base.45" }
%"struct.std::_Vector_base.45" = type { %"struct.std::_Vector_base<std::unique_ptr<ggml_backend_buffer, ggml_backend_buffer_deleter>, std::allocator<std::unique_ptr<ggml_backend_buffer, ggml_backend_buffer_deleter>>>::_Vector_impl" }
%"struct.std::_Vector_base<std::unique_ptr<ggml_backend_buffer, ggml_backend_buffer_deleter>, std::allocator<std::unique_ptr<ggml_backend_buffer, ggml_backend_buffer_deleter>>>::_Vector_impl" = type { %"struct.std::_Vector_base<std::unique_ptr<ggml_backend_buffer, ggml_backend_buffer_deleter>, std::allocator<std::unique_ptr<ggml_backend_buffer, ggml_backend_buffer_deleter>>>::_Vector_impl_data" }
%"struct.std::_Vector_base<std::unique_ptr<ggml_backend_buffer, ggml_backend_buffer_deleter>, std::allocator<std::unique_ptr<ggml_backend_buffer, ggml_backend_buffer_deleter>>>::_Vector_impl_data" = type { ptr, ptr, ptr }

; Function Attrs: mustprogress nounwind uwtable
define void @_Z21llama_kv_cache_defragR14llama_kv_cache(ptr noundef nonnull align 8 dereferenceable(152) %0) #3 {
  %2 = alloca ptr, align 8
  store ptr %0, ptr %2, align 8, !tbaa !22
  %3 = load ptr, ptr %2, align 8, !tbaa !22
  %4 = getelementptr inbounds nuw %struct.llama_kv_cache, ptr %3, i32 0, i32 2
  %5 = load i8, ptr %4, align 2, !tbaa !62, !range !10, !noundef !11
  %6 = trunc i8 %5 to i1
  br i1 %6, label %10, label %7

7:                                                ; preds = %1
  %8 = load ptr, ptr %2, align 8, !tbaa !22
  %9 = getelementptr inbounds nuw %struct.llama_kv_cache, ptr %8, i32 0, i32 1
  store i8 1, ptr %9, align 1, !tbaa !227
  br label %10

10:                                               ; preds = %7, %1
  ret void
}