; Function Attrs: mustprogress nofree norecurse nosync nounwind willreturn memory(argmem: readwrite) uwtable
define void @_Z21llama_kv_cache_defragR14llama_kv_cache(ptr noundef nonnull align 8 captures(none) dereferenceable(152) %0) local_unnamed_addr #9 {
  %2 = getelementptr inbounds nuw i8, ptr %0, i64 2
  %3 = load i8, ptr %2, align 2, !tbaa !46, !range !12, !noundef !13
  %4 = trunc nuw i8 %3 to i1
  br i1 %4, label %7, label %5

5:                                                ; preds = %1
  %6 = getelementptr inbounds nuw i8, ptr %0, i64 1
  store i8 1, ptr %6, align 1, !tbaa !163
  br label %7

7:                                                ; preds = %5, %1
  ret void
}